; Function Attrs: nounwind uwtable
define noalias nonnull ptr @l_Lake_GitRepo_resolveRemoteRevision___lambda__1(ptr noundef %0, ptr noundef %1, ptr readnone captures(none) %2, ptr noundef %3, ptr noundef %4) local_unnamed_addr #0 {
  %6 = load ptr, ptr @l_Lake_GitRepo_getHeadRevision___lambda__1___closed__1, align 8, !tbaa !12
  %7 = tail call ptr @lean_string_append(ptr noundef %6, ptr noundef %0) #3
  %8 = load ptr, ptr @l_Lake_GitRepo_resolveRemoteRevision___lambda__1___closed__1, align 8, !tbaa !12
  %9 = tail call ptr @lean_string_append(ptr noundef %7, ptr noundef %8) #3
  %10 = tail call ptr @lean_string_append(ptr noundef %9, ptr noundef %1) #3
  %11 = load ptr, ptr @l_Lake_GitRepo_resolveRemoteRevision___lambda__1___closed__2, align 8, !tbaa !12
  %12 = tail call ptr @lean_string_append(ptr noundef %10, ptr noundef %11) #3
  tail call void @lean_inc_heartbeat() #3
  %13 = tail call noalias ptr @mi_malloc_small(i64 noundef 24) #3
  %14 = icmp eq ptr %13, null
  br i1 %14, label %15, label %lean_alloc_ctor.exit

15:                                               ; preds = %5
  tail call void @lean_internal_panic_out_of_memory() #4
  unreachable

lean_alloc_ctor.exit:                             ; preds = %5
  %16 = getelementptr inbounds nuw i8, ptr %13, i64 4
  %17 = getelementptr inbounds nuw i8, ptr %13, i64 16
  store i64 3, ptr %17, align 8, !tbaa !4
  store i32 1, ptr %13, align 4, !tbaa !8
  store i32 65560, ptr %16, align 4
  %18 = getelementptr inbounds nuw i8, ptr %13, i64 8
  store ptr %12, ptr %18, align 8, !tbaa !12
  %19 = getelementptr i8, ptr %3, i64 8
  %.val = load i64, ptr %19, align 8, !tbaa !4
  %20 = tail call ptr @lean_array_push(ptr noundef %3, ptr noundef nonnull %13) #3
  tail call void @lean_inc_heartbeat() #3
  %21 = tail call noalias ptr @mi_malloc_small(i64 noundef 24) #3
  %22 = icmp eq ptr %21, null
  br i1 %22, label %23, label %lean_alloc_ctor.exit23

23:                                               ; preds = %lean_alloc_ctor.exit
  tail call void @lean_internal_panic_out_of_memory() #4
  unreachable

lean_alloc_ctor.exit23:                           ; preds = %lean_alloc_ctor.exit
  %24 = shl i64 %.val, 1
  %25 = or disjoint i64 %24, 1
  %26 = inttoptr i64 %25 to ptr
  %27 = getelementptr inbounds nuw i8, ptr %21, i64 4
  store i32 1, ptr %21, align 4, !tbaa !8
  store i32 16908312, ptr %27, align 4
  %28 = getelementptr inbounds nuw i8, ptr %21, i64 8
  store ptr %26, ptr %28, align 8, !tbaa !12
  %29 = getelementptr inbounds nuw i8, ptr %21, i64 16
  store ptr %20, ptr %29, align 8, !tbaa !12
  tail call void @lean_inc_heartbeat() #3
  %30 = tail call noalias ptr @mi_malloc_small(i64 noundef 24) #3
  %31 = icmp eq ptr %30, null
  br i1 %31, label %32, label %lean_alloc_ctor.exit24

32:                                               ; preds = %lean_alloc_ctor.exit23
  tail call void @lean_internal_panic_out_of_memory() #4
  unreachable

lean_alloc_ctor.exit24:                           ; preds = %lean_alloc_ctor.exit23
  %33 = getelementptr inbounds nuw i8, ptr %30, i64 4
  store i32 1, ptr %30, align 4, !tbaa !8
  store i32 131096, ptr %33, align 4
  %34 = getelementptr inbounds nuw i8, ptr %30, i64 8
  store ptr %21, ptr %34, align 8, !tbaa !12
  %35 = getelementptr inbounds nuw i8, ptr %30, i64 16
  store ptr %4, ptr %35, align 8, !tbaa !12
  ret ptr %30
}